target datalayout = "e-m:e-p270:32:32-p271:32:32-p272:64:64-i64:64-i128:128-f80:128-n8:16:32:64-S128"
target triple = "x86_64-pc-linux-gnu"

%"class.std::__cxx11::basic_string" = type { %"struct.std::__cxx11::basic_string<char>::_Alloc_hider", i64, %union.anon }
%"struct.std::__cxx11::basic_string<char>::_Alloc_hider" = type { ptr }
%union.anon = type { i64, [8 x i8] }
%"class.std::vector.3" = type { %"struct.std::_Vector_base.4" }
%"struct.std::_Vector_base.4" = type { %"struct.std::_Vector_base<int, std::allocator<int>>::_Vector_impl" }
%"struct.std::_Vector_base<int, std::allocator<int>>::_Vector_impl" = type { %"struct.std::_Vector_base<int, std::allocator<int>>::_Vector_impl_data" }
%"struct.std::_Vector_base<int, std::allocator<int>>::_Vector_impl_data" = type { ptr, ptr, ptr }
%"class.std::vector" = type { %"struct.std::_Vector_base" }
%"struct.std::_Vector_base" = type { %"struct.std::_Vector_base<std::__cxx11::basic_string<char>, std::allocator<std::__cxx11::basic_string<char>>>::_Vector_impl" }
%"struct.std::_Vector_base<std::__cxx11::basic_string<char>, std::allocator<std::__cxx11::basic_string<char>>>::_Vector_impl" = type { %"struct.std::_Vector_base<std::__cxx11::basic_string<char>, std::allocator<std::__cxx11::basic_string<char>>>::_Vector_impl_data" }
%"struct.std::_Vector_base<std::__cxx11::basic_string<char>, std::allocator<std::__cxx11::basic_string<char>>>::_Vector_impl_data" = type { ptr, ptr, ptr }
%"struct.(anonymous namespace)::BtorWorker" = type { ptr, %"struct.Yosys::SigMap", ptr, i8, i8, i8, i8, i32, i32, [4 x i8], %"class.Yosys::hashlib::dict.56", %"class.Yosys::hashlib::dict.63", %"class.Yosys::hashlib::dict.70", %"class.Yosys::hashlib::dict.56", %"class.Yosys::hashlib::dict.77", %"class.Yosys::hashlib::dict.84", %"class.Yosys::hashlib::dict.91", %"class.std::vector.98", %"class.std::vector.103", %"class.Yosys::hashlib::pool.108", %"class.std::vector.3", %"class.Yosys::hashlib::dict.115", %"class.Yosys::hashlib::pool.122", %"class.Yosys::hashlib::pool.129", %"class.std::vector.136", %"class.Yosys::hashlib::dict.141", %"class.std::__cxx11::basic_string", %"class.std::__cxx11::basic_string", %"class.std::vector", %"class.Yosys::hashlib::dict.56", %"class.std::vector.148", %"class.std::vector.148", %"class.Yosys::hashlib::dict.153", %"class.Yosys::hashlib::dict.153", %"class.Yosys::PrettyJson" }
%"struct.Yosys::SigMap" = type { %"class.Yosys::hashlib::mfp" }
%"class.Yosys::hashlib::mfp" = type { %"class.Yosys::hashlib::idict", %"class.std::vector.3" }
%"class.Yosys::hashlib::idict" = type { %"class.Yosys::hashlib::pool.49" }
%"class.Yosys::hashlib::pool.49" = type <{ %"class.std::vector.3", %"class.std::vector.50", [8 x i8] }>
%"class.std::vector.50" = type { %"struct.std::_Vector_base.51" }
%"struct.std::_Vector_base.51" = type { %"struct.std::_Vector_base<Yosys::hashlib::pool<Yosys::RTLIL::SigBit>::entry_t, std::allocator<Yosys::hashlib::pool<Yosys::RTLIL::SigBit>::entry_t>>::_Vector_impl" }
%"struct.std::_Vector_base<Yosys::hashlib::pool<Yosys::RTLIL::SigBit>::entry_t, std::allocator<Yosys::hashlib::pool<Yosys::RTLIL::SigBit>::entry_t>>::_Vector_impl" = type { %"struct.std::_Vector_base<Yosys::hashlib::pool<Yosys::RTLIL::SigBit>::entry_t, std::allocator<Yosys::hashlib::pool<Yosys::RTLIL::SigBit>::entry_t>>::_Vector_impl_data" }
%"struct.std::_Vector_base<Yosys::hashlib::pool<Yosys::RTLIL::SigBit>::entry_t, std::allocator<Yosys::hashlib::pool<Yosys::RTLIL::SigBit>::entry_t>>::_Vector_impl_data" = type { ptr, ptr, ptr }
%"class.Yosys::hashlib::dict.63" = type <{ %"class.std::vector.3", %"class.std::vector.64", [8 x i8] }>
%"class.std::vector.64" = type { %"struct.std::_Vector_base.65" }
%"struct.std::_Vector_base.65" = type { %"struct.std::_Vector_base<Yosys::hashlib::dict<std::pair<int, int>, int>::entry_t, std::allocator<Yosys::hashlib::dict<std::pair<int, int>, int>::entry_t>>::_Vector_impl" }
%"struct.std::_Vector_base<Yosys::hashlib::dict<std::pair<int, int>, int>::entry_t, std::allocator<Yosys::hashlib::dict<std::pair<int, int>, int>::entry_t>>::_Vector_impl" = type { %"struct.std::_Vector_base<Yosys::hashlib::dict<std::pair<int, int>, int>::entry_t, std::allocator<Yosys::hashlib::dict<std::pair<int, int>, int>::entry_t>>::_Vector_impl_data" }
%"struct.std::_Vector_base<Yosys::hashlib::dict<std::pair<int, int>, int>::entry_t, std::allocator<Yosys::hashlib::dict<std::pair<int, int>, int>::entry_t>>::_Vector_impl_data" = type { ptr, ptr, ptr }
%"class.Yosys::hashlib::dict.70" = type <{ %"class.std::vector.3", %"class.std::vector.71", [8 x i8] }>
%"class.std::vector.71" = type { %"struct.std::_Vector_base.72" }
%"struct.std::_Vector_base.72" = type { %"struct.std::_Vector_base<Yosys::hashlib::dict<Yosys::RTLIL::SigBit, std::pair<int, int>>::entry_t, std::allocator<Yosys::hashlib::dict<Yosys::RTLIL::SigBit, std::pair<int, int>>::entry_t>>::_Vector_impl" }
%"struct.std::_Vector_base<Yosys::hashlib::dict<Yosys::RTLIL::SigBit, std::pair<int, int>>::entry_t, std::allocator<Yosys::hashlib::dict<Yosys::RTLIL::SigBit, std::pair<int, int>>::entry_t>>::_Vector_impl" = type { %"struct.std::_Vector_base<Yosys::hashlib::dict<Yosys::RTLIL::SigBit, std::pair<int, int>>::entry_t, std::allocator<Yosys::hashlib::dict<Yosys::RTLIL::SigBit, std::pair<int, int>>::entry_t>>::_Vector_impl_data" }
%"struct.std::_Vector_base<Yosys::hashlib::dict<Yosys::RTLIL::SigBit, std::pair<int, int>>::entry_t, std::allocator<Yosys::hashlib::dict<Yosys::RTLIL::SigBit, std::pair<int, int>>::entry_t>>::_Vector_impl_data" = type { ptr, ptr, ptr }
%"class.Yosys::hashlib::dict.77" = type <{ %"class.std::vector.3", %"class.std::vector.78", [8 x i8] }>
%"class.std::vector.78" = type { %"struct.std::_Vector_base.79" }
%"struct.std::_Vector_base.79" = type { %"struct.std::_Vector_base<Yosys::hashlib::dict<Yosys::RTLIL::SigSpec, int>::entry_t, std::allocator<Yosys::hashlib::dict<Yosys::RTLIL::SigSpec, int>::entry_t>>::_Vector_impl" }
%"struct.std::_Vector_base<Yosys::hashlib::dict<Yosys::RTLIL::SigSpec, int>::entry_t, std::allocator<Yosys::hashlib::dict<Yosys::RTLIL::SigSpec, int>::entry_t>>::_Vector_impl" = type { %"struct.std::_Vector_base<Yosys::hashlib::dict<Yosys::RTLIL::SigSpec, int>::entry_t, std::allocator<Yosys::hashlib::dict<Yosys::RTLIL::SigSpec, int>::entry_t>>::_Vector_impl_data" }
%"struct.std::_Vector_base<Yosys::hashlib::dict<Yosys::RTLIL::SigSpec, int>::entry_t, std::allocator<Yosys::hashlib::dict<Yosys::RTLIL::SigSpec, int>::entry_t>>::_Vector_impl_data" = type { ptr, ptr, ptr }
%"class.Yosys::hashlib::dict.84" = type <{ %"class.std::vector.3", %"class.std::vector.85", [8 x i8] }>
%"class.std::vector.85" = type { %"struct.std::_Vector_base.86" }
%"struct.std::_Vector_base.86" = type { %"struct.std::_Vector_base<Yosys::hashlib::dict<Yosys::RTLIL::SigBit, Yosys::RTLIL::Cell *>::entry_t, std::allocator<Yosys::hashlib::dict<Yosys::RTLIL::SigBit, Yosys::RTLIL::Cell *>::entry_t>>::_Vector_impl" }
%"struct.std::_Vector_base<Yosys::hashlib::dict<Yosys::RTLIL::SigBit, Yosys::RTLIL::Cell *>::entry_t, std::allocator<Yosys::hashlib::dict<Yosys::RTLIL::SigBit, Yosys::RTLIL::Cell *>::entry_t>>::_Vector_impl" = type { %"struct.std::_Vector_base<Yosys::hashlib::dict<Yosys::RTLIL::SigBit, Yosys::RTLIL::Cell *>::entry_t, std::allocator<Yosys::hashlib::dict<Yosys::RTLIL::SigBit, Yosys::RTLIL::Cell *>::entry_t>>::_Vector_impl_data" }
%"struct.std::_Vector_base<Yosys::hashlib::dict<Yosys::RTLIL::SigBit, Yosys::RTLIL::Cell *>::entry_t, std::allocator<Yosys::hashlib::dict<Yosys::RTLIL::SigBit, Yosys::RTLIL::Cell *>::entry_t>>::_Vector_impl_data" = type { ptr, ptr, ptr }
%"class.Yosys::hashlib::dict.91" = type <{ %"class.std::vector.3", %"class.std::vector.92", [8 x i8] }>
%"class.std::vector.92" = type { %"struct.std::_Vector_base.93" }
%"struct.std::_Vector_base.93" = type { %"struct.std::_Vector_base<Yosys::hashlib::dict<Yosys::RTLIL::Const, int>::entry_t, std::allocator<Yosys::hashlib::dict<Yosys::RTLIL::Const, int>::entry_t>>::_Vector_impl" }
%"struct.std::_Vector_base<Yosys::hashlib::dict<Yosys::RTLIL::Const, int>::entry_t, std::allocator<Yosys::hashlib::dict<Yosys::RTLIL::Const, int>::entry_t>>::_Vector_impl" = type { %"struct.std::_Vector_base<Yosys::hashlib::dict<Yosys::RTLIL::Const, int>::entry_t, std::allocator<Yosys::hashlib::dict<Yosys::RTLIL::Const, int>::entry_t>>::_Vector_impl_data" }
%"struct.std::_Vector_base<Yosys::hashlib::dict<Yosys::RTLIL::Const, int>::entry_t, std::allocator<Yosys::hashlib::dict<Yosys::RTLIL::Const, int>::entry_t>>::_Vector_impl_data" = type { ptr, ptr, ptr }
%"class.std::vector.98" = type { %"struct.std::_Vector_base.99" }
%"struct.std::_Vector_base.99" = type { %"struct.std::_Vector_base<std::pair<int, Yosys::RTLIL::Cell *>, std::allocator<std::pair<int, Yosys::RTLIL::Cell *>>>::_Vector_impl" }
%"struct.std::_Vector_base<std::pair<int, Yosys::RTLIL::Cell *>, std::allocator<std::pair<int, Yosys::RTLIL::Cell *>>>::_Vector_impl" = type { %"struct.std::_Vector_base<std::pair<int, Yosys::RTLIL::Cell *>, std::allocator<std::pair<int, Yosys::RTLIL::Cell *>>>::_Vector_impl_data" }
%"struct.std::_Vector_base<std::pair<int, Yosys::RTLIL::Cell *>, std::allocator<std::pair<int, Yosys::RTLIL::Cell *>>>::_Vector_impl_data" = type { ptr, ptr, ptr }
%"class.std::vector.103" = type { %"struct.std::_Vector_base.104" }
%"struct.std::_Vector_base.104" = type { %"struct.std::_Vector_base<std::pair<int, Yosys::Mem *>, std::allocator<std::pair<int, Yosys::Mem *>>>::_Vector_impl" }
%"struct.std::_Vector_base<std::pair<int, Yosys::Mem *>, std::allocator<std::pair<int, Yosys::Mem *>>>::_Vector_impl" = type { %"struct.std::_Vector_base<std::pair<int, Yosys::Mem *>, std::allocator<std::pair<int, Yosys::Mem *>>>::_Vector_impl_data" }
%"struct.std::_Vector_base<std::pair<int, Yosys::Mem *>, std::allocator<std::pair<int, Yosys::Mem *>>>::_Vector_impl_data" = type { ptr, ptr, ptr }
%"class.Yosys::hashlib::pool.108" = type <{ %"class.std::vector.3", %"class.std::vector.109", [8 x i8] }>
%"class.std::vector.109" = type { %"struct.std::_Vector_base.110" }
%"struct.std::_Vector_base.110" = type { %"struct.std::_Vector_base<Yosys::hashlib::pool<Yosys::RTLIL::Cell *>::entry_t, std::allocator<Yosys::hashlib::pool<Yosys::RTLIL::Cell *>::entry_t>>::_Vector_impl" }
%"struct.std::_Vector_base<Yosys::hashlib::pool<Yosys::RTLIL::Cell *>::entry_t, std::allocator<Yosys::hashlib::pool<Yosys::RTLIL::Cell *>::entry_t>>::_Vector_impl" = type { %"struct.std::_Vector_base<Yosys::hashlib::pool<Yosys::RTLIL::Cell *>::entry_t, std::allocator<Yosys::hashlib::pool<Yosys::RTLIL::Cell *>::entry_t>>::_Vector_impl_data" }
%"struct.std::_Vector_base<Yosys::hashlib::pool<Yosys::RTLIL::Cell *>::entry_t, std::allocator<Yosys::hashlib::pool<Yosys::RTLIL::Cell *>::entry_t>>::_Vector_impl_data" = type { ptr, ptr, ptr }
%"class.Yosys::hashlib::dict.115" = type <{ %"class.std::vector.3", %"class.std::vector.116", [8 x i8] }>
%"class.std::vector.116" = type { %"struct.std::_Vector_base.117" }
%"struct.std::_Vector_base.117" = type { %"struct.std::_Vector_base<Yosys::hashlib::dict<Yosys::RTLIL::SigBit, bool>::entry_t, std::allocator<Yosys::hashlib::dict<Yosys::RTLIL::SigBit, bool>::entry_t>>::_Vector_impl" }
%"struct.std::_Vector_base<Yosys::hashlib::dict<Yosys::RTLIL::SigBit, bool>::entry_t, std::allocator<Yosys::hashlib::dict<Yosys::RTLIL::SigBit, bool>::entry_t>>::_Vector_impl" = type { %"struct.std::_Vector_base<Yosys::hashlib::dict<Yosys::RTLIL::SigBit, bool>::entry_t, std::allocator<Yosys::hashlib::dict<Yosys::RTLIL::SigBit, bool>::entry_t>>::_Vector_impl_data" }
%"struct.std::_Vector_base<Yosys::hashlib::dict<Yosys::RTLIL::SigBit, bool>::entry_t, std::allocator<Yosys::hashlib::dict<Yosys::RTLIL::SigBit, bool>::entry_t>>::_Vector_impl_data" = type { ptr, ptr, ptr }
%"class.Yosys::hashlib::pool.122" = type <{ %"class.std::vector.3", %"class.std::vector.123", [8 x i8] }>
%"class.std::vector.123" = type { %"struct.std::_Vector_base.124" }
%"struct.std::_Vector_base.124" = type { %"struct.std::_Vector_base<Yosys::hashlib::pool<Yosys::RTLIL::Wire *>::entry_t, std::allocator<Yosys::hashlib::pool<Yosys::RTLIL::Wire *>::entry_t>>::_Vector_impl" }
%"struct.std::_Vector_base<Yosys::hashlib::pool<Yosys::RTLIL::Wire *>::entry_t, std::allocator<Yosys::hashlib::pool<Yosys::RTLIL::Wire *>::entry_t>>::_Vector_impl" = type { %"struct.std::_Vector_base<Yosys::hashlib::pool<Yosys::RTLIL::Wire *>::entry_t, std::allocator<Yosys::hashlib::pool<Yosys::RTLIL::Wire *>::entry_t>>::_Vector_impl_data" }
%"struct.std::_Vector_base<Yosys::hashlib::pool<Yosys::RTLIL::Wire *>::entry_t, std::allocator<Yosys::hashlib::pool<Yosys::RTLIL::Wire *>::entry_t>>::_Vector_impl_data" = type { ptr, ptr, ptr }
%"class.Yosys::hashlib::pool.129" = type <{ %"class.std::vector.3", %"class.std::vector.130", [8 x i8] }>
%"class.std::vector.130" = type { %"struct.std::_Vector_base.131" }
%"struct.std::_Vector_base.131" = type { %"struct.std::_Vector_base<Yosys::hashlib::pool<std::__cxx11::basic_string<char>>::entry_t, std::allocator<Yosys::hashlib::pool<std::__cxx11::basic_string<char>>::entry_t>>::_Vector_impl" }
%"struct.std::_Vector_base<Yosys::hashlib::pool<std::__cxx11::basic_string<char>>::entry_t, std::allocator<Yosys::hashlib::pool<std::__cxx11::basic_string<char>>::entry_t>>::_Vector_impl" = type { %"struct.std::_Vector_base<Yosys::hashlib::pool<std::__cxx11::basic_string<char>>::entry_t, std::allocator<Yosys::hashlib::pool<std::__cxx11::basic_string<char>>::entry_t>>::_Vector_impl_data" }
%"struct.std::_Vector_base<Yosys::hashlib::pool<std::__cxx11::basic_string<char>>::entry_t, std::allocator<Yosys::hashlib::pool<std::__cxx11::basic_string<char>>::entry_t>>::_Vector_impl_data" = type { ptr, ptr, ptr }
%"class.std::vector.136" = type { %"struct.std::_Vector_base.137" }
%"struct.std::_Vector_base.137" = type { %"struct.std::_Vector_base<Yosys::Mem, std::allocator<Yosys::Mem>>::_Vector_impl" }
%"struct.std::_Vector_base<Yosys::Mem, std::allocator<Yosys::Mem>>::_Vector_impl" = type { %"struct.std::_Vector_base<Yosys::Mem, std::allocator<Yosys::Mem>>::_Vector_impl_data" }
%"struct.std::_Vector_base<Yosys::Mem, std::allocator<Yosys::Mem>>::_Vector_impl_data" = type { ptr, ptr, ptr }
%"class.Yosys::hashlib::dict.141" = type <{ %"class.std::vector.3", %"class.std::vector.142", [8 x i8] }>
%"class.std::vector.142" = type { %"struct.std::_Vector_base.143" }
%"struct.std::_Vector_base.143" = type { %"struct.std::_Vector_base<Yosys::hashlib::dict<Yosys::RTLIL::Cell *, Yosys::Mem *>::entry_t, std::allocator<Yosys::hashlib::dict<Yosys::RTLIL::Cell *, Yosys::Mem *>::entry_t>>::_Vector_impl" }
%"struct.std::_Vector_base<Yosys::hashlib::dict<Yosys::RTLIL::Cell *, Yosys::Mem *>::entry_t, std::allocator<Yosys::hashlib::dict<Yosys::RTLIL::Cell *, Yosys::Mem *>::entry_t>>::_Vector_impl" = type { %"struct.std::_Vector_base<Yosys::hashlib::dict<Yosys::RTLIL::Cell *, Yosys::Mem *>::entry_t, std::allocator<Yosys::hashlib::dict<Yosys::RTLIL::Cell *, Yosys::Mem *>::entry_t>>::_Vector_impl_data" }
%"struct.std::_Vector_base<Yosys::hashlib::dict<Yosys::RTLIL::Cell *, Yosys::Mem *>::entry_t, std::allocator<Yosys::hashlib::dict<Yosys::RTLIL::Cell *, Yosys::Mem *>::entry_t>>::_Vector_impl_data" = type { ptr, ptr, ptr }
%"class.Yosys::hashlib::dict.56" = type <{ %"class.std::vector.3", %"class.std::vector.57", [8 x i8] }>
%"class.std::vector.57" = type { %"struct.std::_Vector_base.58" }
%"struct.std::_Vector_base.58" = type { %"struct.std::_Vector_base<Yosys::hashlib::dict<int, int>::entry_t, std::allocator<Yosys::hashlib::dict<int, int>::entry_t>>::_Vector_impl" }
%"struct.std::_Vector_base<Yosys::hashlib::dict<int, int>::entry_t, std::allocator<Yosys::hashlib::dict<int, int>::entry_t>>::_Vector_impl" = type { %"struct.std::_Vector_base<Yosys::hashlib::dict<int, int>::entry_t, std::allocator<Yosys::hashlib::dict<int, int>::entry_t>>::_Vector_impl_data" }
%"struct.std::_Vector_base<Yosys::hashlib::dict<int, int>::entry_t, std::allocator<Yosys::hashlib::dict<int, int>::entry_t>>::_Vector_impl_data" = type { ptr, ptr, ptr }
%"class.std::vector.148" = type { %"struct.std::_Vector_base.149" }
%"struct.std::_Vector_base.149" = type { %"struct.std::_Vector_base<(anonymous namespace)::BtorWorker::ywmap_btor_sig, std::allocator<(anonymous namespace)::BtorWorker::ywmap_btor_sig>>::_Vector_impl" }
%"struct.std::_Vector_base<(anonymous namespace)::BtorWorker::ywmap_btor_sig, std::allocator<(anonymous namespace)::BtorWorker::ywmap_btor_sig>>::_Vector_impl" = type { %"struct.std::_Vector_base<(anonymous namespace)::BtorWorker::ywmap_btor_sig, std::allocator<(anonymous namespace)::BtorWorker::ywmap_btor_sig>>::_Vector_impl_data" }
%"struct.std::_Vector_base<(anonymous namespace)::BtorWorker::ywmap_btor_sig, std::allocator<(anonymous namespace)::BtorWorker::ywmap_btor_sig>>::_Vector_impl_data" = type { ptr, ptr, ptr }
%"class.Yosys::hashlib::dict.153" = type <{ %"class.std::vector.3", %"class.std::vector.154", [8 x i8] }>
%"class.std::vector.154" = type { %"struct.std::_Vector_base.155" }
%"struct.std::_Vector_base.155" = type { %"struct.std::_Vector_base<Yosys::hashlib::dict<Yosys::RTLIL::SigBit, int>::entry_t, std::allocator<Yosys::hashlib::dict<Yosys::RTLIL::SigBit, int>::entry_t>>::_Vector_impl" }
%"struct.std::_Vector_base<Yosys::hashlib::dict<Yosys::RTLIL::SigBit, int>::entry_t, std::allocator<Yosys::hashlib::dict<Yosys::RTLIL::SigBit, int>::entry_t>>::_Vector_impl" = type { %"struct.std::_Vector_base<Yosys::hashlib::dict<Yosys::RTLIL::SigBit, int>::entry_t, std::allocator<Yosys::hashlib::dict<Yosys::RTLIL::SigBit, int>::entry_t>>::_Vector_impl_data" }
%"struct.std::_Vector_base<Yosys::hashlib::dict<Yosys::RTLIL::SigBit, int>::entry_t, std::allocator<Yosys::hashlib::dict<Yosys::RTLIL::SigBit, int>::entry_t>>::_Vector_impl_data" = type { ptr, ptr, ptr }
%"class.Yosys::PrettyJson" = type <{ %"class.std::__cxx11::basic_string", %"class.std::vector.160", %"class.std::vector.165", i32, [4 x i8] }>
%"class.std::vector.160" = type { %"struct.std::_Vector_base.161" }
%"struct.std::_Vector_base.161" = type { %"struct.std::_Vector_base<std::unique_ptr<Yosys::PrettyJson::Target>, std::allocator<std::unique_ptr<Yosys::PrettyJson::Target>>>::_Vector_impl" }
%"struct.std::_Vector_base<std::unique_ptr<Yosys::PrettyJson::Target>, std::allocator<std::unique_ptr<Yosys::PrettyJson::Target>>>::_Vector_impl" = type { %"struct.std::_Vector_base<std::unique_ptr<Yosys::PrettyJson::Target>, std::allocator<std::unique_ptr<Yosys::PrettyJson::Target>>>::_Vector_impl_data" }
%"struct.std::_Vector_base<std::unique_ptr<Yosys::PrettyJson::Target>, std::allocator<std::unique_ptr<Yosys::PrettyJson::Target>>>::_Vector_impl_data" = type { ptr, ptr, ptr }
%"class.std::vector.165" = type { %"struct.std::_Vector_base.166" }
%"struct.std::_Vector_base.166" = type { %"struct.std::_Vector_base<Yosys::PrettyJson::Scope, std::allocator<Yosys::PrettyJson::Scope>>::_Vector_impl" }
%"struct.std::_Vector_base<Yosys::PrettyJson::Scope, std::allocator<Yosys::PrettyJson::Scope>>::_Vector_impl" = type { %"struct.std::_Vector_base<Yosys::PrettyJson::Scope, std::allocator<Yosys::PrettyJson::Scope>>::_Vector_impl_data" }
%"struct.std::_Vector_base<Yosys::PrettyJson::Scope, std::allocator<Yosys::PrettyJson::Scope>>::_Vector_impl_data" = type { ptr, ptr, ptr }

@.str.83 = private unnamed_addr constant [19 x i8] c"%d sort bitvec %d\0A\00", align 1

; Function Attrs: mustprogress uwtable
define internal noundef i32 @_ZN12_GLOBAL__N_110BtorWorker10get_bv_sidEi(ptr noundef nonnull align 8 dereferenceable(1272) %0, i32 noundef %1) #4 align 2 {
  %3 = alloca ptr, align 8
  %4 = alloca i32, align 4
  %5 = alloca i32, align 4
  store ptr %0, ptr %3, align 8, !tbaa !59
  store i32 %1, ptr %4, align 4, !tbaa !208
  %6 = load ptr, ptr %3, align 8
  %7 = getelementptr inbounds nuw %"struct.(anonymous namespace)::BtorWorker", ptr %6, i32 0, i32 10
  %8 = call noundef i32 @_ZNK5Yosys7hashlib4dictIiiNS0_8hash_opsIiEEE5countERKi(ptr noundef nonnull align 8 dereferenceable(49) %7, ptr noundef nonnull align 4 dereferenceable(4) %4)
  %9 = icmp eq i32 %8, 0
  br i1 %9, label %10, label %19

10:                                               ; preds = %2
  call void @llvm.lifetime.start.p0(i64 4, ptr %5) #3
  %11 = getelementptr inbounds nuw %"struct.(anonymous namespace)::BtorWorker", ptr %6, i32 0, i32 7
  %12 = load i32, ptr %11, align 4, !tbaa !195
  %13 = add nsw i32 %12, 1
  store i32 %13, ptr %11, align 4, !tbaa !195
  store i32 %12, ptr %5, align 4, !tbaa !208
  %14 = load i32, ptr %5, align 4, !tbaa !208
  %15 = load i32, ptr %4, align 4, !tbaa !208
  call void (ptr, ptr, ...) @_ZN12_GLOBAL__N_110BtorWorker5btorfEPKcz(ptr noundef nonnull align 8 dereferenceable(1272) %6, ptr noundef @.str.83, i32 noundef %14, i32 noundef %15)
  %16 = load i32, ptr %5, align 4, !tbaa !208
  %17 = getelementptr inbounds nuw %"struct.(anonymous namespace)::BtorWorker", ptr %6, i32 0, i32 10
  %18 = call noundef nonnull align 4 dereferenceable(4) ptr @_ZN5Yosys7hashlib4dictIiiNS0_8hash_opsIiEEEixERKi(ptr noundef nonnull align 8 dereferenceable(49) %17, ptr noundef nonnull align 4 dereferenceable(4) %4)
  store i32 %16, ptr %18, align 4, !tbaa !208
  call void @llvm.lifetime.end.p0(i64 4, ptr %5) #3
  br label %19

19:                                               ; preds = %10, %2
  %20 = getelementptr inbounds nuw %"struct.(anonymous namespace)::BtorWorker", ptr %6, i32 0, i32 10
  %21 = call noundef nonnull align 4 dereferenceable(4) ptr @_ZN5Yosys7hashlib4dictIiiNS0_8hash_opsIiEEE2atERKi(ptr noundef nonnull align 8 dereferenceable(49) %20, ptr noundef nonnull align 4 dereferenceable(4) %4)
  %22 = load i32, ptr %21, align 4, !tbaa !208
  ret i32 %22
}