; Function Attrs: mustprogress uwtable
define internal fastcc noundef i32 @_ZN12_GLOBAL__N_110BtorWorker10get_bv_sidEi(ptr noundef nonnull align 8 dereferenceable(1272) %0, i32 noundef %1) unnamed_addr #5 align 2 {
  %3 = alloca i32, align 4
  store i32 %1, ptr %3, align 4, !tbaa !224
  %4 = getelementptr inbounds nuw i8, ptr %0, i64 112
  %5 = call noundef i32 @_ZNK5Yosys7hashlib4dictIiiNS0_8hash_opsIiEEE5countERKi(ptr noundef nonnull align 8 dereferenceable(49) %4, ptr noundef nonnull align 4 dereferenceable(4) %3)
  %6 = icmp eq i32 %5, 0
  br i1 %6, label %7, label %13

7:                                                ; preds = %2
  %8 = getelementptr inbounds nuw i8, ptr %0, i64 100
  %9 = load i32, ptr %8, align 4, !tbaa !214
  %10 = add nsw i32 %9, 1
  store i32 %10, ptr %8, align 4, !tbaa !214
  %11 = load i32, ptr %3, align 4, !tbaa !224
  call void (ptr, ptr, ...) @_ZN12_GLOBAL__N_110BtorWorker5btorfEPKcz(ptr noundef nonnull align 8 dereferenceable(1272) %0, ptr noundef nonnull @.str.83, i32 noundef %9, i32 noundef %11)
  %12 = call noundef nonnull align 4 dereferenceable(4) ptr @_ZN5Yosys7hashlib4dictIiiNS0_8hash_opsIiEEEixERKi(ptr noundef nonnull align 8 dereferenceable(49) %4, ptr noundef nonnull align 4 dereferenceable(4) %3)
  store i32 %9, ptr %12, align 4, !tbaa !224
  br label %13

13:                                               ; preds = %7, %2
  %14 = call noundef nonnull align 4 dereferenceable(4) ptr @_ZN5Yosys7hashlib4dictIiiNS0_8hash_opsIiEEE2atERKi(ptr noundef nonnull align 8 dereferenceable(49) %4, ptr noundef nonnull align 4 dereferenceable(4) %3)
  %15 = load i32, ptr %14, align 4, !tbaa !224
  ret i32 %15
}